ccopy_reg
_reconstructor
p0
(cgoogle.oauth2.credentials
Credentials
p1
c__builtin__
object
p2
Ntp3
Rp4
(dp5
S'_quota_project_id'
p6
NsS'_token_uri'
p7
Vhttps://oauth2.googleapis.com/token
p8
sS'_client_secret'
p9
VahZ4hHUcdDOOVKUX5ifZBRul
p10
sS'_default_scopes'
p11
NsS'expiry'
p12
cdatetime
datetime
p13
(S'\x07\xe5\x05\x10\x08\x0f$\x0b\x8f\x86'
p14
tp15
Rp16
sS'token'
p17
Vya29.a0AfH6SMDFqwLpWQ5CTbj15RLn3qInY5cgrmwaZZIH14O6AAOuBAvek3Bljul9PDL1xwEMv79rwS2cdxlQwv33aXKbhjlnfizkY0UQMV9VqFeZiEYR87SKnZsQg8emwFyZPQsec5I-Ze-bWwx4TghsBz2Ge2Is
p18
sS'_refresh_token'
p19
V1//0gAZ3d0YTHbdjCgYIARAAGBASNwF-L9IrywZIH0yfy-BtP79Na0GXYHoEXqGHxdPKfD2HUA1Xcufp9_MAxw3RXojVGFJXOfhVE3I
p20
sS'_scopes'
p21
(lp22
S'https://www.googleapis.com/auth/drive'
p23
asS'_client_id'
p24
V240699709342-vsd5qpbfuqmege5b67ub95tbe8rsdebi.apps.googleusercontent.com
p25
sS'_id_token'
p26
NsS'_rapt_token'
p27
Nsb.